(dp1
(Vbookdao
S'failed'
tp2
ccopy_reg
_reconstructor
p3
(cpyspider.libs.counter
TotalCounter
p4
c__builtin__
object
p5
NtRp6
(dp7
S'cnt'
p8
I7
sbs(Vopenbookdata
S'success'
tp9
g3
(g4
g5
NtRp10
(dp11
g8
I276
sbs(Vbookdao
S'success'
tp12
g3
(g4
g5
NtRp13
(dp14
g8
I3282614
sbs(Vlawinchina
S'success'
tp15
g3
(g4
g5
NtRp16
(dp17
g8
I2151
sbs(S'openbookdata'
S'pending'
tp18
g3
(g4
g5
NtRp19
(dp20
g8
I1515
sbs.