(dp1
(Vbookdao
S'retry'
tp2
ccopy_reg
_reconstructor
p3
(cpyspider.libs.counter
TimebaseAverageWindowCounter
p4
c__builtin__
object
p5
NtRp6
(dp7
S'_first_data_time'
p8
F1528902492.675189
sS'window_size'
p9
F406.41717086732388
sS'times'
p10
ccollections
deque
p11
((lp12
F1528902492.675189
aF1528902754.7416401
aF1528903199.9486041
aF1528903360.2757511
aI600
tRp13
sS'window_interval'
p14
I144
sS'values'
p15
g11
((lp16
I2
aI3
aI3
aI5
aI600
tRp17
sS'cache_value'
p18
I0
sS'max_window_size'
p19
I600
sS'cache_start'
p20
Nsbs(S'bookdao'
S'pending'
tp21
g3
(g4
g5
NtRp22
(dp23
g8
F1528902101.5565741
sg9
F409.13327245745393
sg10
g11
((lp24
F1528902101.5565741
aF1528902273.0870969
aF1528906558.6069551
aF1528947912.5952599
aI600
tRp25
sg14
I144
sg15
g11
((lp26
I7
aI4429
aI1
aI2
aI600
tRp27
sg18
I0
sg19
I600
sg20
Nsbs(Vbookdao
S'success'
tp28
g3
(g4
g5
NtRp29
(dp30
g8
F1528902104.3710289
sg9
F409.11372770865756
sg10
g11
((lp31
F1528902104.3710289
aF1528902276.0523231
aF1528902422.9260581
aF1528902616.348773
aF1528902865.750912
aF1528903010.963577
aF1528903155.0222499
aF1528903299.1927731
aF1528903573.308193
aF1528903717.328608
aF1528903861.3899651
aF1528904005.455457
aF1528904149.508884
aF1528904293.64768
aF1528904437.8892131
aF1528904581.9860611
aF1528904726.267803
aF1528904870.6776731
aF1528905014.7268281
aF1528905158.8028231
aF1528905302.961396
aF1528905446.976656
aF1528905591.0402081
aF1528905735.132369
aF1528905879.697721
aF1528906023.7553389
aF1528906167.948879
aF1528906311.9588051
aF1528906456.057013
aF1528947915.446579
aI600
tRp32
sg14
I144
sg15
g11
((lp33
I7
aI3
aI402
aI402
aI413
aI249
aI535
aI11
aI1265
aI1443
aI1443
aI1436
aI1419
aI1466
aI1441
aI1445
aI1436
aI1448
aI1439
aI1442
aI1439
aI1442
aI1443
aI1441
aI1444
aI1439
aI1442
aI1442
aI933
aI2
aI600
tRp34
sg18
I0
sg19
I600
sg20
Nsbs.